target datalayout = "e-m:e-p270:32:32-p271:32:32-p272:64:64-i64:64-i128:128-f80:128-n8:16:32:64-S128"
target triple = "x86_64-unknown-linux-gnu"

%struct.BdrvChild = type { ptr, ptr, ptr, i32, ptr, i64, i64, i8, i8, %struct.anon, %struct.anon.0 }
%struct.anon = type { ptr, ptr }
%struct.anon.0 = type { ptr, ptr }
%struct.BlockLimits = type { i32, i64, i32, i64, i32, i32, i32, i64, i32, i64, i64, i32, i8, i32, i32, i32, i32, i32, i32, i32 }
%struct.BlockDriverState = type { i32, i8, i8, i8, i8, i8, ptr, ptr, ptr, %struct.anon.1, i8, [4096 x i8], [4096 x i8], [4096 x i8], [16 x i8], ptr, [4096 x i8], %struct.BlockLimits, i32, i32, i32, i32, [32 x i8], %union.anon, %union.anon.2, %union.anon.3, i32, [16 x %struct.anon.4], ptr, %struct.anon.5, ptr, ptr, %struct.anon.6, ptr, ptr, i32, ptr, i64, i64, %struct.QemuMutex, %struct.anon.7, %struct.Stat64, i32, i32, i32, i32, i32, i32, %struct.QemuMutex, %struct.anon.8, %struct.CoQueue, i8, i32, i8, %struct.CoMutex, ptr, ptr }
%struct.anon.1 = type { ptr }
%union.anon = type { %struct.QTailQLink }
%struct.QTailQLink = type { ptr, ptr }
%union.anon.2 = type { %struct.QTailQLink }
%union.anon.3 = type { %struct.QTailQLink }
%struct.anon.4 = type { ptr }
%struct.anon.5 = type { ptr }
%struct.anon.6 = type { ptr }
%struct.anon.7 = type { ptr }
%struct.Stat64 = type { i64 }
%struct.QemuMutex = type { %union.pthread_mutex_t, i8 }
%union.pthread_mutex_t = type { %struct.__pthread_mutex_s }
%struct.__pthread_mutex_s = type { i32, i32, i32, i32, i32, i16, i16, %struct.__pthread_internal_list }
%struct.__pthread_internal_list = type { ptr, ptr }
%struct.anon.8 = type { ptr }
%struct.CoQueue = type { %struct.anon.9 }
%struct.anon.9 = type { ptr, ptr }
%struct.CoMutex = type { i32, ptr, %struct.anon.10, %struct.anon.10, i32, i32, ptr }
%struct.anon.10 = type { ptr }
%struct.BlockDriver = type { ptr, i32, i8, i8, i8, i8, i8, i8, ptr, ptr, ptr, ptr, ptr, ptr, ptr, ptr, ptr, ptr, ptr, ptr, ptr, ptr, ptr, ptr, ptr, ptr, ptr, ptr, ptr, ptr, ptr, ptr, ptr, ptr, ptr, ptr, ptr, ptr, ptr, ptr, ptr, ptr, ptr, ptr, ptr, ptr, ptr, ptr, ptr, ptr, ptr, ptr, ptr, ptr, ptr, ptr, ptr, ptr, ptr, ptr, ptr, %struct.anon.11, ptr, ptr, ptr, ptr, ptr, ptr, ptr, ptr, ptr, ptr, ptr, ptr, ptr, ptr, ptr, ptr, ptr, ptr, ptr, ptr, ptr, ptr, ptr, ptr, ptr, ptr, ptr, ptr, ptr, ptr, ptr, ptr, ptr, ptr, ptr, ptr, ptr, ptr, ptr, ptr, ptr, ptr, ptr, ptr, ptr, ptr, ptr, ptr, ptr }
%struct.anon.11 = type { ptr, ptr }
%struct.GraphLockableMainloop = type {}

@.str = private unnamed_addr constant [22 x i8] c"qemu_in_main_thread()\00", align 1
@.str.1 = private unnamed_addr constant [19 x i8] c"../qemu/block/io.c\00", align 1
@__PRETTY_FUNCTION__.bdrv_register_buf = private unnamed_addr constant [70 x i8] c"_Bool bdrv_register_buf(BlockDriverState *, void *, size_t, Error **)\00", align 1
@__PRETTY_FUNCTION__.bdrv_register_buf_rollback = private unnamed_addr constant [81 x i8] c"void bdrv_register_buf_rollback(BlockDriverState *, void *, size_t, BdrvChild *)\00", align 1

; Function Attrs: nounwind sspstrong uwtable
define internal void @graph_lockable_auto_unlock_mainloop(ptr noundef %x) #0 {
entry:
  %x.addr = alloca ptr, align 8
  store ptr %x, ptr %x.addr, align 8
  call void @bdrv_graph_rdunlock_main_loop()
  ret void
}

; Function Attrs: nounwind sspstrong uwtable
define internal void @glib_autoptr_clear_GraphLockableMainloop(ptr noundef %_ptr) #0 {
entry:
  %_ptr.addr = alloca ptr, align 8
  store ptr %_ptr, ptr %_ptr.addr, align 8
  %0 = load ptr, ptr %_ptr.addr, align 8
  %tobool = icmp ne ptr %0, null
  br i1 %tobool, label %if.then, label %if.end

if.then:                                          ; preds = %entry
  %1 = load ptr, ptr %_ptr.addr, align 8
  call void @graph_lockable_auto_unlock_mainloop(ptr noundef %1)
  br label %if.end

if.end:                                           ; preds = %if.then, %entry
  ret void
}

; Function Attrs: nounwind sspstrong uwtable
define internal void @glib_autoptr_cleanup_GraphLockableMainloop(ptr noundef %_ptr) #0 {
entry:
  %_ptr.addr = alloca ptr, align 8
  store ptr %_ptr, ptr %_ptr.addr, align 8
  %0 = load ptr, ptr %_ptr.addr, align 8
  %1 = load ptr, ptr %0, align 8
  call void @glib_autoptr_clear_GraphLockableMainloop(ptr noundef %1)
  ret void
}

; Function Attrs: nounwind sspstrong uwtable
define internal void @bdrv_register_buf_rollback(ptr noundef %bs, ptr noundef %host, i64 noundef %size, ptr noundef %final_child) #0 {
entry:
  %bs.addr = alloca ptr, align 8
  %host.addr = alloca ptr, align 8
  %size.addr = alloca i64, align 8
  %final_child.addr = alloca ptr, align 8
  %child = alloca ptr, align 8
  store ptr %bs, ptr %bs.addr, align 8
  store ptr %host, ptr %host.addr, align 8
  store i64 %size, ptr %size.addr, align 8
  store ptr %final_child, ptr %final_child.addr, align 8
  br label %do.body

do.body:                                          ; preds = %entry
  %call = call zeroext i1 @qemu_in_main_thread()
  br i1 %call, label %if.then, label %if.else

if.then:                                          ; preds = %do.body
  br label %if.end

if.else:                                          ; preds = %do.body
  call void @__assert_fail(ptr noundef @.str, ptr noundef @.str.1, i32 noundef 3354, ptr noundef @__PRETTY_FUNCTION__.bdrv_register_buf_rollback) #10
  unreachable

if.end:                                           ; preds = %if.then
  br label %do.end

do.end:                                           ; preds = %if.end
  call void @assert_bdrv_graph_readable()
  %0 = load ptr, ptr %bs.addr, align 8
  %children = getelementptr inbounds %struct.BlockDriverState, ptr %0, i32 0, i32 29
  %lh_first = getelementptr inbounds %struct.anon.5, ptr %children, i32 0, i32 0
  %1 = load ptr, ptr %lh_first, align 8
  store ptr %1, ptr %child, align 8
  br label %for.cond

for.cond:                                         ; preds = %for.inc, %do.end
  %2 = load ptr, ptr %child, align 8
  %tobool = icmp ne ptr %2, null
  br i1 %tobool, label %for.body, label %for.end

for.body:                                         ; preds = %for.cond
  %3 = load ptr, ptr %child, align 8
  %4 = load ptr, ptr %final_child.addr, align 8
  %cmp = icmp eq ptr %3, %4
  br i1 %cmp, label %if.then1, label %if.end2

if.then1:                                         ; preds = %for.body
  br label %for.end

if.end2:                                          ; preds = %for.body
  %5 = load ptr, ptr %child, align 8
  %bs3 = getelementptr inbounds %struct.BdrvChild, ptr %5, i32 0, i32 0
  %6 = load ptr, ptr %bs3, align 8
  %7 = load ptr, ptr %host.addr, align 8
  %8 = load i64, ptr %size.addr, align 8
  call void @bdrv_unregister_buf(ptr noundef %6, ptr noundef %7, i64 noundef %8)
  br label %for.inc

for.inc:                                          ; preds = %if.end2
  %9 = load ptr, ptr %child, align 8
  %next = getelementptr inbounds %struct.BdrvChild, ptr %9, i32 0, i32 9
  %le_next = getelementptr inbounds %struct.anon, ptr %next, i32 0, i32 0
  %10 = load ptr, ptr %le_next, align 8
  store ptr %10, ptr %child, align 8
  br label %for.cond, !llvm.loop !30

for.end:                                          ; preds = %if.then1, %for.cond
  %11 = load ptr, ptr %bs.addr, align 8
  %drv = getelementptr inbounds %struct.BlockDriverState, ptr %11, i32 0, i32 6
  %12 = load ptr, ptr %drv, align 8
  %tobool4 = icmp ne ptr %12, null
  br i1 %tobool4, label %land.lhs.true, label %if.end10

land.lhs.true:                                    ; preds = %for.end
  %13 = load ptr, ptr %bs.addr, align 8
  %drv5 = getelementptr inbounds %struct.BlockDriverState, ptr %13, i32 0, i32 6
  %14 = load ptr, ptr %drv5, align 8
  %bdrv_unregister_buf = getelementptr inbounds %struct.BlockDriver, ptr %14, i32 0, i32 60
  %15 = load ptr, ptr %bdrv_unregister_buf, align 8
  %tobool6 = icmp ne ptr %15, null
  br i1 %tobool6, label %if.then7, label %if.end10

if.then7:                                         ; preds = %land.lhs.true
  %16 = load ptr, ptr %bs.addr, align 8
  %drv8 = getelementptr inbounds %struct.BlockDriverState, ptr %16, i32 0, i32 6
  %17 = load ptr, ptr %drv8, align 8
  %bdrv_unregister_buf9 = getelementptr inbounds %struct.BlockDriver, ptr %17, i32 0, i32 60
  %18 = load ptr, ptr %bdrv_unregister_buf9, align 8
  %19 = load ptr, ptr %bs.addr, align 8
  %20 = load ptr, ptr %host.addr, align 8
  %21 = load i64, ptr %size.addr, align 8
  call void %18(ptr noundef %19, ptr noundef %20, i64 noundef %21)
  br label %if.end10

if.end10:                                         ; preds = %if.then7, %land.lhs.true, %for.end
  ret void
}

; Function Attrs: nounwind sspstrong uwtable
define internal ptr @graph_lockable_auto_lock_mainloop(ptr noundef %x) #0 {
entry:
  %x.addr = alloca ptr, align 8
  store ptr %x, ptr %x.addr, align 8
  call void @bdrv_graph_rdlock_main_loop()
  %0 = load ptr, ptr %x.addr, align 8
  ret ptr %0
}

; Function Attrs: nounwind sspstrong uwtable
define dso_local zeroext i1 @bdrv_register_buf(ptr noundef %bs, ptr noundef %host, i64 noundef %size, ptr noundef %errp) #0 {
entry:
  %retval = alloca i1, align 1
  %bs.addr = alloca ptr, align 8
  %host.addr = alloca ptr, align 8
  %size.addr = alloca i64, align 8
  %errp.addr = alloca ptr, align 8
  %child = alloca ptr, align 8
  %graph_lockable_auto87 = alloca ptr, align 8
  %.compoundliteral = alloca %struct.GraphLockableMainloop, align 1
  %cleanup.dest.slot = alloca i32, align 4
  store ptr %bs, ptr %bs.addr, align 8
  store ptr %host, ptr %host.addr, align 8
  store i64 %size, ptr %size.addr, align 8
  store ptr %errp, ptr %errp.addr, align 8
  br label %do.body

do.body:                                          ; preds = %entry
  %call = call zeroext i1 @qemu_in_main_thread()
  br i1 %call, label %if.then, label %if.else

if.then:                                          ; preds = %do.body
  br label %if.end

if.else:                                          ; preds = %do.body
  call void @__assert_fail(ptr noundef @.str, ptr noundef @.str.1, i32 noundef 3375, ptr noundef @__PRETTY_FUNCTION__.bdrv_register_buf) #10
  unreachable

if.end:                                           ; preds = %if.then
  br label %do.end

do.end:                                           ; preds = %if.end
  %call1 = call ptr @graph_lockable_auto_lock_mainloop(ptr noundef %.compoundliteral)
  store ptr %call1, ptr %graph_lockable_auto87, align 8
  %0 = load ptr, ptr %bs.addr, align 8
  %drv = getelementptr inbounds %struct.BlockDriverState, ptr %0, i32 0, i32 6
  %1 = load ptr, ptr %drv, align 8
  %tobool = icmp ne ptr %1, null
  br i1 %tobool, label %land.lhs.true, label %if.end10

land.lhs.true:                                    ; preds = %do.end
  %2 = load ptr, ptr %bs.addr, align 8
  %drv2 = getelementptr inbounds %struct.BlockDriverState, ptr %2, i32 0, i32 6
  %3 = load ptr, ptr %drv2, align 8
  %bdrv_register_buf = getelementptr inbounds %struct.BlockDriver, ptr %3, i32 0, i32 59
  %4 = load ptr, ptr %bdrv_register_buf, align 8
  %tobool3 = icmp ne ptr %4, null
  br i1 %tobool3, label %if.then4, label %if.end10

if.then4:                                         ; preds = %land.lhs.true
  %5 = load ptr, ptr %bs.addr, align 8
  %drv5 = getelementptr inbounds %struct.BlockDriverState, ptr %5, i32 0, i32 6
  %6 = load ptr, ptr %drv5, align 8
  %bdrv_register_buf6 = getelementptr inbounds %struct.BlockDriver, ptr %6, i32 0, i32 59
  %7 = load ptr, ptr %bdrv_register_buf6, align 8
  %8 = load ptr, ptr %bs.addr, align 8
  %9 = load ptr, ptr %host.addr, align 8
  %10 = load i64, ptr %size.addr, align 8
  %11 = load ptr, ptr %errp.addr, align 8
  %call7 = call zeroext i1 %7(ptr noundef %8, ptr noundef %9, i64 noundef %10, ptr noundef %11)
  br i1 %call7, label %if.end9, label %if.then8

if.then8:                                         ; preds = %if.then4
  store i1 false, ptr %retval, align 1
  store i32 1, ptr %cleanup.dest.slot, align 4
  br label %cleanup

if.end9:                                          ; preds = %if.then4
  br label %if.end10

if.end10:                                         ; preds = %if.end9, %land.lhs.true, %do.end
  %12 = load ptr, ptr %bs.addr, align 8
  %children = getelementptr inbounds %struct.BlockDriverState, ptr %12, i32 0, i32 29
  %lh_first = getelementptr inbounds %struct.anon.5, ptr %children, i32 0, i32 0
  %13 = load ptr, ptr %lh_first, align 8
  store ptr %13, ptr %child, align 8
  br label %for.cond

for.cond:                                         ; preds = %for.inc, %if.end10
  %14 = load ptr, ptr %child, align 8
  %tobool11 = icmp ne ptr %14, null
  br i1 %tobool11, label %for.body, label %for.end

for.body:                                         ; preds = %for.cond
  %15 = load ptr, ptr %child, align 8
  %bs12 = getelementptr inbounds %struct.BdrvChild, ptr %15, i32 0, i32 0
  %16 = load ptr, ptr %bs12, align 8
  %17 = load ptr, ptr %host.addr, align 8
  %18 = load i64, ptr %size.addr, align 8
  %19 = load ptr, ptr %errp.addr, align 8
  %call13 = call zeroext i1 @bdrv_register_buf(ptr noundef %16, ptr noundef %17, i64 noundef %18, ptr noundef %19)
  br i1 %call13, label %if.end15, label %if.then14

if.then14:                                        ; preds = %for.body
  %20 = load ptr, ptr %bs.addr, align 8
  %21 = load ptr, ptr %host.addr, align 8
  %22 = load i64, ptr %size.addr, align 8
  %23 = load ptr, ptr %child, align 8
  call void @bdrv_register_buf_rollback(ptr noundef %20, ptr noundef %21, i64 noundef %22, ptr noundef %23)
  store i1 false, ptr %retval, align 1
  store i32 1, ptr %cleanup.dest.slot, align 4
  br label %cleanup

if.end15:                                         ; preds = %for.body
  br label %for.inc

for.inc:                                          ; preds = %if.end15
  %24 = load ptr, ptr %child, align 8
  %next = getelementptr inbounds %struct.BdrvChild, ptr %24, i32 0, i32 9
  %le_next = getelementptr inbounds %struct.anon, ptr %next, i32 0, i32 0
  %25 = load ptr, ptr %le_next, align 8
  store ptr %25, ptr %child, align 8
  br label %for.cond, !llvm.loop !29

for.end:                                          ; preds = %for.cond
  store i1 true, ptr %retval, align 1
  store i32 1, ptr %cleanup.dest.slot, align 4
  br label %cleanup

cleanup:                                          ; preds = %for.end, %if.then14, %if.then8
  call void @glib_autoptr_cleanup_GraphLockableMainloop(ptr noundef %graph_lockable_auto87)
  %26 = load i1, ptr %retval, align 1
  ret i1 %26
}