; Function Attrs: nounwind sspstrong uwtable
define dso_local noundef zeroext i1 @bdrv_register_buf(ptr noundef %bs, ptr noundef %host, i64 noundef %size, ptr noundef %errp) local_unnamed_addr #0 {
entry:
  %call = tail call zeroext i1 @qemu_in_main_thread() #15
  br i1 %call, label %do.end, label %if.else

if.else:                                          ; preds = %entry
  tail call void @__assert_fail(ptr noundef nonnull @.str, ptr noundef nonnull @.str.1, i32 noundef 3375, ptr noundef nonnull @__PRETTY_FUNCTION__.bdrv_register_buf) #16
  unreachable

do.end:                                           ; preds = %entry
  tail call void @bdrv_graph_rdlock_main_loop() #15
  %drv = getelementptr inbounds nuw i8, ptr %bs, i64 16
  %0 = load ptr, ptr %drv, align 8
  %tobool.not = icmp eq ptr %0, null
  br i1 %tobool.not, label %if.end10, label %land.lhs.true

land.lhs.true:                                    ; preds = %do.end
  %bdrv_register_buf = getelementptr inbounds nuw i8, ptr %0, i64 432
  %1 = load ptr, ptr %bdrv_register_buf, align 8
  %tobool3.not = icmp eq ptr %1, null
  br i1 %tobool3.not, label %if.end10, label %if.then4

if.then4:                                         ; preds = %land.lhs.true
  %call7 = tail call zeroext i1 %1(ptr noundef nonnull %bs, ptr noundef %host, i64 noundef %size, ptr noundef %errp) #15
  br i1 %call7, label %if.end10, label %glib_autoptr_cleanup_GraphLockableMainloop.exit

if.end10:                                         ; preds = %if.then4, %land.lhs.true, %do.end
  %children = getelementptr inbounds nuw i8, ptr %bs, i64 16824
  %child.016 = load ptr, ptr %children, align 8
  %tobool11.not17 = icmp eq ptr %child.016, null
  br i1 %tobool11.not17, label %glib_autoptr_cleanup_GraphLockableMainloop.exit, label %for.body

for.body:                                         ; preds = %if.end10, %for.inc
  %child.018 = phi ptr [ %child.0, %for.inc ], [ %child.016, %if.end10 ]
  %2 = load ptr, ptr %child.018, align 8
  %call13 = tail call zeroext i1 @bdrv_register_buf(ptr noundef %2, ptr noundef %host, i64 noundef %size, ptr noundef %errp)
  br i1 %call13, label %for.inc, label %if.then14

if.then14:                                        ; preds = %for.body
  %call.i = tail call zeroext i1 @qemu_in_main_thread() #15
  br i1 %call.i, label %do.end.i, label %if.else.i

if.else.i:                                        ; preds = %if.then14
  tail call void @__assert_fail(ptr noundef nonnull @.str, ptr noundef nonnull @.str.1, i32 noundef 3354, ptr noundef nonnull @__PRETTY_FUNCTION__.bdrv_register_buf_rollback) #16
  unreachable

do.end.i:                                         ; preds = %if.then14
  tail call void @assert_bdrv_graph_readable() #15
  %child.011.i = load ptr, ptr %children, align 8
  %tobool.not12.i = icmp eq ptr %child.011.i, null
  %cmp13.i = icmp eq ptr %child.011.i, %child.018
  %or.cond14.i = or i1 %tobool.not12.i, %cmp13.i
  br i1 %or.cond14.i, label %for.end.i, label %if.end2.i

if.end2.i:                                        ; preds = %do.end.i, %if.end2.i
  %child.015.i = phi ptr [ %child.0.i, %if.end2.i ], [ %child.011.i, %do.end.i ]
  %3 = load ptr, ptr %child.015.i, align 8
  tail call void @bdrv_unregister_buf(ptr noundef %3, ptr noundef %host, i64 noundef %size)
  %next.i = getelementptr inbounds nuw i8, ptr %child.015.i, i64 64
  %child.0.i = load ptr, ptr %next.i, align 8
  %tobool.not.i = icmp eq ptr %child.0.i, null
  %cmp.i = icmp eq ptr %child.0.i, %child.018
  %or.cond.i = or i1 %tobool.not.i, %cmp.i
  br i1 %or.cond.i, label %for.end.i, label %if.end2.i, !llvm.loop !32

for.end.i:                                        ; preds = %if.end2.i, %do.end.i
  %4 = load ptr, ptr %drv, align 8
  %tobool4.not.i = icmp eq ptr %4, null
  br i1 %tobool4.not.i, label %glib_autoptr_cleanup_GraphLockableMainloop.exit, label %land.lhs.true.i

land.lhs.true.i:                                  ; preds = %for.end.i
  %bdrv_unregister_buf.i = getelementptr inbounds nuw i8, ptr %4, i64 440
  %5 = load ptr, ptr %bdrv_unregister_buf.i, align 8
  %tobool6.not.i = icmp eq ptr %5, null
  br i1 %tobool6.not.i, label %glib_autoptr_cleanup_GraphLockableMainloop.exit, label %if.then7.i

if.then7.i:                                       ; preds = %land.lhs.true.i
  tail call void %5(ptr noundef nonnull %bs, ptr noundef %host, i64 noundef %size) #15
  br label %glib_autoptr_cleanup_GraphLockableMainloop.exit

for.inc:                                          ; preds = %for.body
  %next = getelementptr inbounds nuw i8, ptr %child.018, i64 64
  %child.0 = load ptr, ptr %next, align 8
  %tobool11.not = icmp eq ptr %child.0, null
  br i1 %tobool11.not, label %glib_autoptr_cleanup_GraphLockableMainloop.exit, label %for.body, !llvm.loop !33

glib_autoptr_cleanup_GraphLockableMainloop.exit:  ; preds = %for.inc, %if.end10, %if.then7.i, %land.lhs.true.i, %for.end.i, %if.then4
  %retval.0 = phi i1 [ false, %if.then4 ], [ false, %for.end.i ], [ false, %land.lhs.true.i ], [ false, %if.then7.i ], [ true, %if.end10 ], [ true, %for.inc ]
  tail call void @bdrv_graph_rdunlock_main_loop() #15
  ret i1 %retval.0
}